target datalayout = "e-m:e-p270:32:32-p271:32:32-p272:64:64-i64:64-i128:128-f80:128-n8:16:32:64-S128"
target triple = "x86_64-pc-linux-gnu"

@s_Truths6 = internal global [6 x i64] [i64 -6148914691236517206, i64 -3689348814741910324, i64 -1085102592571150096, i64 -71777214294589696, i64 -281470681808896, i64 -4294967296], align 16

; Function Attrs: nounwind uwtable
define internal i64 @If_ManSat6ComposeLut4(i32 noundef %0, ptr noundef %1, i32 noundef %2) #0 {
  %4 = alloca i32, align 4
  %5 = alloca ptr, align 8
  %6 = alloca i32, align 4
  %7 = alloca i32, align 4
  %8 = alloca i32, align 4
  %9 = alloca i32, align 4
  %10 = alloca i64, align 8
  %11 = alloca i64, align 8
  store i32 %0, ptr %4, align 4, !tbaa !3
  store ptr %1, ptr %5, align 8, !tbaa !22
  store i32 %2, ptr %6, align 4, !tbaa !3
  call void @llvm.lifetime.start.p0(i64 4, ptr %7) #7
  call void @llvm.lifetime.start.p0(i64 4, ptr %8) #7
  call void @llvm.lifetime.start.p0(i64 4, ptr %9) #7
  %12 = load i32, ptr %6, align 4, !tbaa !3
  %13 = shl i32 1, %12
  store i32 %13, ptr %9, align 4, !tbaa !3
  call void @llvm.lifetime.start.p0(i64 8, ptr %10) #7
  call void @llvm.lifetime.start.p0(i64 8, ptr %11) #7
  store i64 0, ptr %11, align 8, !tbaa !14
  store i32 0, ptr %7, align 4, !tbaa !3
  br label %14

14:                                               ; preds = %60, %3
  %15 = load i32, ptr %7, align 4, !tbaa !3
  %16 = load i32, ptr %9, align 4, !tbaa !3
  %17 = icmp slt i32 %15, %16
  br i1 %17, label %18, label %63

18:                                               ; preds = %14
  %19 = load i32, ptr %4, align 4, !tbaa !3
  %20 = load i32, ptr %7, align 4, !tbaa !3
  %21 = ashr i32 %19, %20
  %22 = and i32 %21, 1
  %23 = icmp ne i32 %22, 0
  br i1 %23, label %25, label %24

24:                                               ; preds = %18
  br label %60

25:                                               ; preds = %18
  store i64 -1, ptr %10, align 8, !tbaa !14
  store i32 0, ptr %8, align 4, !tbaa !3
  br label %26

26:                                               ; preds = %53, %25
  %27 = load i32, ptr %8, align 4, !tbaa !3
  %28 = load i32, ptr %6, align 4, !tbaa !3
  %29 = icmp slt i32 %27, %28
  br i1 %29, label %30, label %56

30:                                               ; preds = %26
  %31 = load i32, ptr %7, align 4, !tbaa !3
  %32 = load i32, ptr %8, align 4, !tbaa !3
  %33 = ashr i32 %31, %32
  %34 = and i32 %33, 1
  %35 = icmp ne i32 %34, 0
  br i1 %35, label %36, label %42

36:                                               ; preds = %30
  %37 = load ptr, ptr %5, align 8, !tbaa !22
  %38 = load i32, ptr %8, align 4, !tbaa !3
  %39 = sext i32 %38 to i64
  %40 = getelementptr inbounds i64, ptr %37, i64 %39
  %41 = load i64, ptr %40, align 8, !tbaa !14
  br label %49

42:                                               ; preds = %30
  %43 = load ptr, ptr %5, align 8, !tbaa !22
  %44 = load i32, ptr %8, align 4, !tbaa !3
  %45 = sext i32 %44 to i64
  %46 = getelementptr inbounds i64, ptr %43, i64 %45
  %47 = load i64, ptr %46, align 8, !tbaa !14
  %48 = xor i64 %47, -1
  br label %49

49:                                               ; preds = %42, %36
  %50 = phi i64 [ %41, %36 ], [ %48, %42 ]
  %51 = load i64, ptr %10, align 8, !tbaa !14
  %52 = and i64 %51, %50
  store i64 %52, ptr %10, align 8, !tbaa !14
  br label %53

53:                                               ; preds = %49
  %54 = load i32, ptr %8, align 4, !tbaa !3
  %55 = add nsw i32 %54, 1
  store i32 %55, ptr %8, align 4, !tbaa !3
  br label %26, !llvm.loop !24

56:                                               ; preds = %26
  %57 = load i64, ptr %10, align 8, !tbaa !14
  %58 = load i64, ptr %11, align 8, !tbaa !14
  %59 = or i64 %58, %57
  store i64 %59, ptr %11, align 8, !tbaa !14
  br label %60

60:                                               ; preds = %56, %24
  %61 = load i32, ptr %7, align 4, !tbaa !3
  %62 = add nsw i32 %61, 1
  store i32 %62, ptr %7, align 4, !tbaa !3
  br label %14, !llvm.loop !25

63:                                               ; preds = %14
  %64 = load i64, ptr %11, align 8, !tbaa !14
  call void @llvm.lifetime.end.p0(i64 8, ptr %11) #7
  call void @llvm.lifetime.end.p0(i64 8, ptr %10) #7
  call void @llvm.lifetime.end.p0(i64 4, ptr %9) #7
  call void @llvm.lifetime.end.p0(i64 4, ptr %8) #7
  call void @llvm.lifetime.end.p0(i64 4, ptr %7) #7
  ret i64 %64
}

; Function Attrs: nounwind uwtable
define i64 @If_ManSat6Truth(i64 noundef %0, i64 noundef %1, ptr noundef %2, i32 noundef %3, ptr noundef %4, i32 noundef %5, ptr noundef %6, i32 noundef %7) #0 {
  %9 = alloca i64, align 8
  %10 = alloca i64, align 8
  %11 = alloca ptr, align 8
  %12 = alloca i32, align 4
  %13 = alloca ptr, align 8
  %14 = alloca i32, align 4
  %15 = alloca ptr, align 8
  %16 = alloca i32, align 4
  %17 = alloca i64, align 8
  %18 = alloca i64, align 8
  %19 = alloca [4 x i64], align 16
  %20 = alloca i32, align 4
  %21 = alloca i32, align 4
  store i64 %0, ptr %9, align 8, !tbaa !14
  store i64 %1, ptr %10, align 8, !tbaa !14
  store ptr %2, ptr %11, align 8, !tbaa !16
  store i32 %3, ptr %12, align 4, !tbaa !3
  store ptr %4, ptr %13, align 8, !tbaa !16
  store i32 %5, ptr %14, align 4, !tbaa !3
  store ptr %6, ptr %15, align 8, !tbaa !16
  store i32 %7, ptr %16, align 4, !tbaa !3
  call void @llvm.lifetime.start.p0(i64 8, ptr %17) #7
  call void @llvm.lifetime.start.p0(i64 8, ptr %18) #7
  call void @llvm.lifetime.start.p0(i64 32, ptr %19) #7
  call void @llvm.lifetime.start.p0(i64 4, ptr %20) #7
  call void @llvm.lifetime.start.p0(i64 4, ptr %21) #7
  store i32 0, ptr %21, align 4, !tbaa !3
  store i32 0, ptr %20, align 4, !tbaa !3
  br label %22

22:                                               ; preds = %39, %8
  %23 = load i32, ptr %20, align 4, !tbaa !3
  %24 = load i32, ptr %14, align 4, !tbaa !3
  %25 = icmp slt i32 %23, %24
  br i1 %25, label %26, label %42

26:                                               ; preds = %22
  %27 = load ptr, ptr %13, align 8, !tbaa !16
  %28 = load i32, ptr %20, align 4, !tbaa !3
  %29 = sext i32 %28 to i64
  %30 = getelementptr inbounds i32, ptr %27, i64 %29
  %31 = load i32, ptr %30, align 4, !tbaa !3
  %32 = sext i32 %31 to i64
  %33 = getelementptr inbounds [6 x i64], ptr @s_Truths6, i64 0, i64 %32
  %34 = load i64, ptr %33, align 8, !tbaa !14
  %35 = load i32, ptr %21, align 4, !tbaa !3
  %36 = add nsw i32 %35, 1
  store i32 %36, ptr %21, align 4, !tbaa !3
  %37 = sext i32 %35 to i64
  %38 = getelementptr inbounds [4 x i64], ptr %19, i64 0, i64 %37
  store i64 %34, ptr %38, align 8, !tbaa !14
  br label %39

39:                                               ; preds = %26
  %40 = load i32, ptr %20, align 4, !tbaa !3
  %41 = add nsw i32 %40, 1
  store i32 %41, ptr %20, align 4, !tbaa !3
  br label %22, !llvm.loop !18

42:                                               ; preds = %22
  store i32 0, ptr %20, align 4, !tbaa !3
  br label %43

43:                                               ; preds = %60, %42
  %44 = load i32, ptr %20, align 4, !tbaa !3
  %45 = load i32, ptr %12, align 4, !tbaa !3
  %46 = icmp slt i32 %44, %45
  br i1 %46, label %47, label %63

47:                                               ; preds = %43
  %48 = load ptr, ptr %11, align 8, !tbaa !16
  %49 = load i32, ptr %20, align 4, !tbaa !3
  %50 = sext i32 %49 to i64
  %51 = getelementptr inbounds i32, ptr %48, i64 %50
  %52 = load i32, ptr %51, align 4, !tbaa !3
  %53 = sext i32 %52 to i64
  %54 = getelementptr inbounds [6 x i64], ptr @s_Truths6, i64 0, i64 %53
  %55 = load i64, ptr %54, align 8, !tbaa !14
  %56 = load i32, ptr %21, align 4, !tbaa !3
  %57 = add nsw i32 %56, 1
  store i32 %57, ptr %21, align 4, !tbaa !3
  %58 = sext i32 %56 to i64
  %59 = getelementptr inbounds [4 x i64], ptr %19, i64 0, i64 %58
  store i64 %55, ptr %59, align 8, !tbaa !14
  br label %60

60:                                               ; preds = %47
  %61 = load i32, ptr %20, align 4, !tbaa !3
  %62 = add nsw i32 %61, 1
  store i32 %62, ptr %20, align 4, !tbaa !3
  br label %43, !llvm.loop !19

63:                                               ; preds = %43
  %64 = load i64, ptr %9, align 8, !tbaa !14
  %65 = and i64 %64, 65535
  %66 = trunc i64 %65 to i32
  %67 = getelementptr inbounds [4 x i64], ptr %19, i64 0, i64 0
  %68 = load i32, ptr %21, align 4, !tbaa !3
  %69 = call i64 @If_ManSat6ComposeLut4(i32 noundef %66, ptr noundef %67, i32 noundef %68)
  store i64 %69, ptr %18, align 8, !tbaa !14
  store i32 0, ptr %21, align 4, !tbaa !3
  %70 = load i64, ptr %18, align 8, !tbaa !14
  %71 = load i32, ptr %21, align 4, !tbaa !3
  %72 = add nsw i32 %71, 1
  store i32 %72, ptr %21, align 4, !tbaa !3
  %73 = sext i32 %71 to i64
  %74 = getelementptr inbounds [4 x i64], ptr %19, i64 0, i64 %73
  store i64 %70, ptr %74, align 8, !tbaa !14
  store i32 0, ptr %20, align 4, !tbaa !3
  br label %75

75:                                               ; preds = %92, %63
  %76 = load i32, ptr %20, align 4, !tbaa !3
  %77 = load i32, ptr %14, align 4, !tbaa !3
  %78 = icmp slt i32 %76, %77
  br i1 %78, label %79, label %95

79:                                               ; preds = %75
  %80 = load ptr, ptr %13, align 8, !tbaa !16
  %81 = load i32, ptr %20, align 4, !tbaa !3
  %82 = sext i32 %81 to i64
  %83 = getelementptr inbounds i32, ptr %80, i64 %82
  %84 = load i32, ptr %83, align 4, !tbaa !3
  %85 = sext i32 %84 to i64
  %86 = getelementptr inbounds [6 x i64], ptr @s_Truths6, i64 0, i64 %85
  %87 = load i64, ptr %86, align 8, !tbaa !14
  %88 = load i32, ptr %21, align 4, !tbaa !3
  %89 = add nsw i32 %88, 1
  store i32 %89, ptr %21, align 4, !tbaa !3
  %90 = sext i32 %88 to i64
  %91 = getelementptr inbounds [4 x i64], ptr %19, i64 0, i64 %90
  store i64 %87, ptr %91, align 8, !tbaa !14
  br label %92

92:                                               ; preds = %79
  %93 = load i32, ptr %20, align 4, !tbaa !3
  %94 = add nsw i32 %93, 1
  store i32 %94, ptr %20, align 4, !tbaa !3
  br label %75, !llvm.loop !20

95:                                               ; preds = %75
  store i32 0, ptr %20, align 4, !tbaa !3
  br label %96

96:                                               ; preds = %113, %95
  %97 = load i32, ptr %20, align 4, !tbaa !3
  %98 = load i32, ptr %16, align 4, !tbaa !3
  %99 = icmp slt i32 %97, %98
  br i1 %99, label %100, label %116

100:                                              ; preds = %96
  %101 = load ptr, ptr %15, align 8, !tbaa !16
  %102 = load i32, ptr %20, align 4, !tbaa !3
  %103 = sext i32 %102 to i64
  %104 = getelementptr inbounds i32, ptr %101, i64 %103
  %105 = load i32, ptr %104, align 4, !tbaa !3
  %106 = sext i32 %105 to i64
  %107 = getelementptr inbounds [6 x i64], ptr @s_Truths6, i64 0, i64 %106
  %108 = load i64, ptr %107, align 8, !tbaa !14
  %109 = load i32, ptr %21, align 4, !tbaa !3
  %110 = add nsw i32 %109, 1
  store i32 %110, ptr %21, align 4, !tbaa !3
  %111 = sext i32 %109 to i64
  %112 = getelementptr inbounds [4 x i64], ptr %19, i64 0, i64 %111
  store i64 %108, ptr %112, align 8, !tbaa !14
  br label %113

113:                                              ; preds = %100
  %114 = load i32, ptr %20, align 4, !tbaa !3
  %115 = add nsw i32 %114, 1
  store i32 %115, ptr %20, align 4, !tbaa !3
  br label %96, !llvm.loop !21

116:                                              ; preds = %96
  %117 = load i64, ptr %10, align 8, !tbaa !14
  %118 = and i64 %117, 65535
  %119 = trunc i64 %118 to i32
  %120 = getelementptr inbounds [4 x i64], ptr %19, i64 0, i64 0
  %121 = load i32, ptr %21, align 4, !tbaa !3
  %122 = call i64 @If_ManSat6ComposeLut4(i32 noundef %119, ptr noundef %120, i32 noundef %121)
  store i64 %122, ptr %17, align 8, !tbaa !14
  %123 = load i64, ptr %17, align 8, !tbaa !14
  call void @llvm.lifetime.end.p0(i64 4, ptr %21) #7
  call void @llvm.lifetime.end.p0(i64 4, ptr %20) #7
  call void @llvm.lifetime.end.p0(i64 32, ptr %19) #7
  call void @llvm.lifetime.end.p0(i64 8, ptr %18) #7
  call void @llvm.lifetime.end.p0(i64 8, ptr %17) #7
  ret i64 %123
}