; Function Attrs: nofree norecurse nosync nounwind memory(argmem: read) uwtable
define i64 @If_ManSat6Truth(i64 noundef %0, i64 noundef %1, ptr noundef readonly captures(none) %2, i32 noundef %3, ptr noundef readonly captures(none) %4, i32 noundef %5, ptr noundef readonly captures(none) %6, i32 noundef %7) local_unnamed_addr #3 {
  %9 = alloca [4 x i64], align 16
  call void @llvm.lifetime.start.p0(i64 32, ptr nonnull %9) #10
  %10 = icmp sgt i32 %5, 0
  br i1 %10, label %.lr.ph.preheader, label %.preheader62

.lr.ph.preheader:                                 ; preds = %8
  %wide.trip.count = zext nneg i32 %5 to i64
  br label %.lr.ph

.preheader62:                                     ; preds = %.lr.ph, %8
  %.0.lcssa = phi i32 [ 0, %8 ], [ %5, %.lr.ph ]
  %11 = icmp sgt i32 %3, 0
  br i1 %11, label %.lr.ph68.preheader, label %._crit_edge

.lr.ph68.preheader:                               ; preds = %.preheader62
  %12 = zext nneg i32 %.0.lcssa to i64
  %wide.trip.count95 = zext nneg i32 %3 to i64
  br label %.lr.ph68

.lr.ph:                                           ; preds = %.lr.ph.preheader, %.lr.ph
  %indvars.iv = phi i64 [ 0, %.lr.ph.preheader ], [ %indvars.iv.next, %.lr.ph ]
  %13 = getelementptr inbounds nuw i32, ptr %4, i64 %indvars.iv
  %14 = load i32, ptr %13, align 4, !tbaa !3
  %15 = sext i32 %14 to i64
  %16 = getelementptr inbounds [6 x i64], ptr @s_Truths6, i64 0, i64 %15
  %17 = load i64, ptr %16, align 8, !tbaa !10
  %indvars.iv.next = add nuw nsw i64 %indvars.iv, 1
  %18 = getelementptr inbounds nuw [4 x i64], ptr %9, i64 0, i64 %indvars.iv
  store i64 %17, ptr %18, align 8, !tbaa !10
  %exitcond.not = icmp eq i64 %indvars.iv.next, %wide.trip.count
  br i1 %exitcond.not, label %.preheader62, label %.lr.ph, !llvm.loop !12

.lr.ph68:                                         ; preds = %.lr.ph68.preheader, %.lr.ph68
  %indvars.iv90 = phi i64 [ 0, %.lr.ph68.preheader ], [ %indvars.iv.next91, %.lr.ph68 ]
  %indvars.iv88 = phi i64 [ %12, %.lr.ph68.preheader ], [ %indvars.iv.next89, %.lr.ph68 ]
  %19 = getelementptr inbounds nuw i32, ptr %2, i64 %indvars.iv90
  %20 = load i32, ptr %19, align 4, !tbaa !3
  %21 = sext i32 %20 to i64
  %22 = getelementptr inbounds [6 x i64], ptr @s_Truths6, i64 0, i64 %21
  %23 = load i64, ptr %22, align 8, !tbaa !10
  %indvars.iv.next89 = add nuw nsw i64 %indvars.iv88, 1
  %24 = getelementptr inbounds nuw [4 x i64], ptr %9, i64 0, i64 %indvars.iv88
  store i64 %23, ptr %24, align 8, !tbaa !10
  %indvars.iv.next91 = add nuw nsw i64 %indvars.iv90, 1
  %exitcond96.not = icmp eq i64 %indvars.iv.next91, %wide.trip.count95
  br i1 %exitcond96.not, label %._crit_edge.loopexit, label %.lr.ph68, !llvm.loop !13

._crit_edge.loopexit:                             ; preds = %.lr.ph68
  %25 = trunc nuw i64 %indvars.iv.next89 to i32
  br label %._crit_edge

._crit_edge:                                      ; preds = %._crit_edge.loopexit, %.preheader62
  %.1.lcssa = phi i32 [ %.0.lcssa, %.preheader62 ], [ %25, %._crit_edge.loopexit ]
  %26 = trunc i64 %0 to i32
  %27 = and i32 %26, 65535
  %.not31.i = icmp eq i32 %.1.lcssa, 31
  br i1 %.not31.i, label %If_ManSat6ComposeLut4.exit, label %.lr.ph28.i

.lr.ph28.i:                                       ; preds = %._crit_edge
  %28 = shl nuw nsw i32 1, %.1.lcssa
  %.not = icmp eq i32 %.1.lcssa, 0
  br i1 %.not, label %.lr.ph28.split.i, label %.lr.ph28.split.us.preheader.i

.lr.ph28.split.us.preheader.i:                    ; preds = %.lr.ph28.i
  %wide.trip.count.i = zext nneg i32 %.1.lcssa to i64
  br label %.lr.ph28.split.us.i

.lr.ph28.split.us.i:                              ; preds = %39, %.lr.ph28.split.us.preheader.i
  %.026.us.i = phi i64 [ %.1.us.i, %39 ], [ 0, %.lr.ph28.split.us.preheader.i ]
  %.01924.us.i = phi i32 [ %40, %39 ], [ 0, %.lr.ph28.split.us.preheader.i ]
  %29 = shl nuw i32 1, %.01924.us.i
  %30 = and i32 %29, %27
  %.not.us.i = icmp eq i32 %30, 0
  br i1 %.not.us.i, label %39, label %.preheader.us.i

.preheader.us.i:                                  ; preds = %.lr.ph28.split.us.i, %.preheader.us.i
  %indvars.iv.i = phi i64 [ %indvars.iv.next.i, %.preheader.us.i ], [ 0, %.lr.ph28.split.us.i ]
  %.01823.us.i = phi i64 [ %38, %.preheader.us.i ], [ -1, %.lr.ph28.split.us.i ]
  %31 = trunc nuw nsw i64 %indvars.iv.i to i32
  %32 = shl nuw i32 1, %31
  %33 = and i32 %32, %.01924.us.i
  %.not21.us.i = icmp eq i32 %33, 0
  %34 = getelementptr inbounds nuw i64, ptr %9, i64 %indvars.iv.i
  %35 = load i64, ptr %34, align 8, !tbaa !10
  %36 = sext i1 %.not21.us.i to i64
  %37 = xor i64 %35, %36
  %38 = and i64 %37, %.01823.us.i
  %indvars.iv.next.i = add nuw nsw i64 %indvars.iv.i, 1
  %exitcond34.not.i = icmp eq i64 %indvars.iv.next.i, %wide.trip.count.i
  br i1 %exitcond34.not.i, label %._crit_edge.us.i, label %.preheader.us.i, !llvm.loop !14

39:                                               ; preds = %._crit_edge.us.i, %.lr.ph28.split.us.i
  %.1.us.i = phi i64 [ %41, %._crit_edge.us.i ], [ %.026.us.i, %.lr.ph28.split.us.i ]
  %40 = add nuw nsw i32 %.01924.us.i, 1
  %exitcond36.not.i = icmp eq i32 %40, %28
  br i1 %exitcond36.not.i, label %If_ManSat6ComposeLut4.exit, label %.lr.ph28.split.us.i, !llvm.loop !15

._crit_edge.us.i:                                 ; preds = %.preheader.us.i
  %41 = or i64 %38, %.026.us.i
  br label %39

.lr.ph28.split.i:                                 ; preds = %.lr.ph28.i, %.lr.ph28.split.i
  %.026.i = phi i64 [ %spec.select.i, %.lr.ph28.split.i ], [ 0, %.lr.ph28.i ]
  %.01924.i = phi i32 [ %44, %.lr.ph28.split.i ], [ 0, %.lr.ph28.i ]
  %42 = shl nuw i32 1, %.01924.i
  %43 = and i32 %42, %27
  %.not.i = icmp eq i32 %43, 0
  %spec.select.i = select i1 %.not.i, i64 %.026.i, i64 -1
  %44 = add nuw nsw i32 %.01924.i, 1
  %exitcond.not.i = icmp eq i32 %44, %28
  br i1 %exitcond.not.i, label %If_ManSat6ComposeLut4.exit, label %.lr.ph28.split.i, !llvm.loop !15

If_ManSat6ComposeLut4.exit:                       ; preds = %39, %.lr.ph28.split.i, %._crit_edge
  %.0.lcssa.i = phi i64 [ 0, %._crit_edge ], [ %spec.select.i, %.lr.ph28.split.i ], [ %.1.us.i, %39 ]
  store i64 %.0.lcssa.i, ptr %9, align 16, !tbaa !10
  br i1 %10, label %.lr.ph72.preheader, label %.preheader

.lr.ph72.preheader:                               ; preds = %If_ManSat6ComposeLut4.exit
  %wide.trip.count104 = zext nneg i32 %5 to i64
  br label %.lr.ph72

.preheader.loopexit:                              ; preds = %.lr.ph72
  %45 = trunc nuw i64 %indvars.iv.next98 to i32
  br label %.preheader

.preheader:                                       ; preds = %.preheader.loopexit, %If_ManSat6ComposeLut4.exit
  %.2.lcssa = phi i32 [ 1, %If_ManSat6ComposeLut4.exit ], [ %45, %.preheader.loopexit ]
  %46 = icmp sgt i32 %7, 0
  br i1 %46, label %.lr.ph76.preheader, label %._crit_edge77

.lr.ph76.preheader:                               ; preds = %.preheader
  %47 = zext i32 %.2.lcssa to i64
  %wide.trip.count113 = zext nneg i32 %7 to i64
  br label %.lr.ph76

.lr.ph72:                                         ; preds = %.lr.ph72.preheader, %.lr.ph72
  %indvars.iv99 = phi i64 [ 0, %.lr.ph72.preheader ], [ %indvars.iv.next100, %.lr.ph72 ]
  %indvars.iv97 = phi i64 [ 1, %.lr.ph72.preheader ], [ %indvars.iv.next98, %.lr.ph72 ]
  %48 = getelementptr inbounds nuw i32, ptr %4, i64 %indvars.iv99
  %49 = load i32, ptr %48, align 4, !tbaa !3
  %50 = sext i32 %49 to i64
  %51 = getelementptr inbounds [6 x i64], ptr @s_Truths6, i64 0, i64 %50
  %52 = load i64, ptr %51, align 8, !tbaa !10
  %indvars.iv.next98 = add nuw nsw i64 %indvars.iv97, 1
  %53 = getelementptr inbounds nuw [4 x i64], ptr %9, i64 0, i64 %indvars.iv97
  store i64 %52, ptr %53, align 8, !tbaa !10
  %indvars.iv.next100 = add nuw nsw i64 %indvars.iv99, 1
  %exitcond105.not = icmp eq i64 %indvars.iv.next100, %wide.trip.count104
  br i1 %exitcond105.not, label %.preheader.loopexit, label %.lr.ph72, !llvm.loop !16

.lr.ph76:                                         ; preds = %.lr.ph76.preheader, %.lr.ph76
  %indvars.iv108 = phi i64 [ 0, %.lr.ph76.preheader ], [ %indvars.iv.next109, %.lr.ph76 ]
  %indvars.iv106 = phi i64 [ %47, %.lr.ph76.preheader ], [ %indvars.iv.next107, %.lr.ph76 ]
  %54 = getelementptr inbounds nuw i32, ptr %6, i64 %indvars.iv108
  %55 = load i32, ptr %54, align 4, !tbaa !3
  %56 = sext i32 %55 to i64
  %57 = getelementptr inbounds [6 x i64], ptr @s_Truths6, i64 0, i64 %56
  %58 = load i64, ptr %57, align 8, !tbaa !10
  %indvars.iv.next107 = add nuw nsw i64 %indvars.iv106, 1
  %59 = getelementptr inbounds nuw [4 x i64], ptr %9, i64 0, i64 %indvars.iv106
  store i64 %58, ptr %59, align 8, !tbaa !10
  %indvars.iv.next109 = add nuw nsw i64 %indvars.iv108, 1
  %exitcond114.not = icmp eq i64 %indvars.iv.next109, %wide.trip.count113
  br i1 %exitcond114.not, label %._crit_edge77.loopexit, label %.lr.ph76, !llvm.loop !17

._crit_edge77.loopexit:                           ; preds = %.lr.ph76
  %60 = trunc nuw i64 %indvars.iv.next107 to i32
  br label %._crit_edge77

._crit_edge77:                                    ; preds = %._crit_edge77.loopexit, %.preheader
  %.3.lcssa = phi i32 [ %.2.lcssa, %.preheader ], [ %60, %._crit_edge77.loopexit ]
  %61 = trunc i64 %1 to i32
  %62 = and i32 %61, 65535
  %.not31.i35 = icmp eq i32 %.3.lcssa, 31
  br i1 %.not31.i35, label %If_ManSat6ComposeLut4.exit60, label %.lr.ph28.i36

.lr.ph28.i36:                                     ; preds = %._crit_edge77
  %63 = shl nuw nsw i32 1, %.3.lcssa
  %wide.trip.count.i46 = zext nneg i32 %.3.lcssa to i64
  br label %.lr.ph28.split.us.i47

.lr.ph28.split.us.i47:                            ; preds = %74, %.lr.ph28.i36
  %.026.us.i48 = phi i64 [ %.1.us.i58, %74 ], [ 0, %.lr.ph28.i36 ]
  %.01924.us.i49 = phi i32 [ %75, %74 ], [ 0, %.lr.ph28.i36 ]
  %64 = shl nuw i32 1, %.01924.us.i49
  %65 = and i32 %62, %64
  %.not.us.i50 = icmp eq i32 %65, 0
  br i1 %.not.us.i50, label %74, label %.preheader.us.i51

.preheader.us.i51:                                ; preds = %.lr.ph28.split.us.i47, %.preheader.us.i51
  %indvars.iv.i52 = phi i64 [ %indvars.iv.next.i55, %.preheader.us.i51 ], [ 0, %.lr.ph28.split.us.i47 ]
  %.01823.us.i53 = phi i64 [ %73, %.preheader.us.i51 ], [ -1, %.lr.ph28.split.us.i47 ]
  %66 = trunc nuw nsw i64 %indvars.iv.i52 to i32
  %67 = shl nuw i32 1, %66
  %68 = and i32 %67, %.01924.us.i49
  %.not21.us.i54 = icmp eq i32 %68, 0
  %69 = getelementptr inbounds nuw i64, ptr %9, i64 %indvars.iv.i52
  %70 = load i64, ptr %69, align 8, !tbaa !10
  %71 = sext i1 %.not21.us.i54 to i64
  %72 = xor i64 %70, %71
  %73 = and i64 %72, %.01823.us.i53
  %indvars.iv.next.i55 = add nuw nsw i64 %indvars.iv.i52, 1
  %exitcond34.not.i56 = icmp eq i64 %indvars.iv.next.i55, %wide.trip.count.i46
  br i1 %exitcond34.not.i56, label %._crit_edge.us.i57, label %.preheader.us.i51, !llvm.loop !14

74:                                               ; preds = %._crit_edge.us.i57, %.lr.ph28.split.us.i47
  %.1.us.i58 = phi i64 [ %76, %._crit_edge.us.i57 ], [ %.026.us.i48, %.lr.ph28.split.us.i47 ]
  %75 = add nuw nsw i32 %.01924.us.i49, 1
  %exitcond36.not.i59 = icmp eq i32 %75, %63
  br i1 %exitcond36.not.i59, label %If_ManSat6ComposeLut4.exit60, label %.lr.ph28.split.us.i47, !llvm.loop !15

._crit_edge.us.i57:                               ; preds = %.preheader.us.i51
  %76 = or i64 %73, %.026.us.i48
  br label %74

If_ManSat6ComposeLut4.exit60:                     ; preds = %74, %._crit_edge77
  %.0.lcssa.i44 = phi i64 [ 0, %._crit_edge77 ], [ %.1.us.i58, %74 ]
  call void @llvm.lifetime.end.p0(i64 32, ptr nonnull %9) #10
  ret i64 %.0.lcssa.i44
}